; Function Attrs: nounwind uwtable
define zeroext i1 @lv_obj_remove_event(ptr noundef readonly %0, i32 noundef %1) local_unnamed_addr #0 {
  %.not = icmp eq ptr %0, null
  br i1 %.not, label %.preheader, label %3

.preheader:                                       ; preds = %2, %.preheader
  br label %.preheader

3:                                                ; preds = %2
  %4 = getelementptr inbounds nuw i8, ptr %0, i64 16
  %5 = load ptr, ptr %4, align 8, !tbaa !13
  %6 = icmp eq ptr %5, null
  br i1 %6, label %10, label %7

7:                                                ; preds = %3
  %8 = getelementptr inbounds nuw i8, ptr %5, i64 16
  %9 = tail call zeroext i1 @lv_event_remove(ptr noundef nonnull %8, i32 noundef %1) #4
  br label %10

10:                                               ; preds = %3, %7
  %.0 = phi i1 [ %9, %7 ], [ false, %3 ]
  ret i1 %.0
}